; Function Attrs: mustprogress uwtable
define hidden noundef ptr @_ZN8seq_util3rex7mk_loopEP4exprj(ptr noundef nonnull readonly align 8 captures(none) dereferenceable(80) %0, ptr noundef %1, i32 noundef %2) local_unnamed_addr #3 align 2 personality ptr @__gxx_personality_v0 {
  %4 = alloca ptr, align 8
  %5 = alloca %class.parameter, align 8
  store ptr %1, ptr %4, align 8, !tbaa !178
  call void @llvm.lifetime.start.p0(i64 16, ptr nonnull %5) #26
  store i32 %2, ptr %5, align 8, !tbaa !216
  %6 = getelementptr inbounds nuw i8, ptr %5, i64 8
  store i8 0, ptr %6, align 8, !tbaa !50
  %7 = getelementptr inbounds nuw i8, ptr %0, i64 8
  %8 = load ptr, ptr %7, align 8, !tbaa !212
  %9 = getelementptr inbounds nuw i8, ptr %0, i64 16
  %10 = load i32, ptr %9, align 8, !tbaa !207
  %11 = invoke noundef ptr @_ZN11ast_manager6mk_appEiijPK9parameterjPKP4exprP4sort(ptr noundef nonnull align 8 dereferenceable(976) %8, i32 noundef %10, i32 noundef 32, i32 noundef 1, ptr noundef nonnull %5, i32 noundef 1, ptr noundef nonnull %4, ptr noundef null)
          to label %12 unwind label %13

12:                                               ; preds = %3
  call void @_ZN9parameterD1Ev(ptr noundef nonnull align 8 dereferenceable(16) %5) #26
  call void @llvm.lifetime.end.p0(i64 16, ptr nonnull %5) #26
  ret ptr %11

13:                                               ; preds = %3
  %14 = landingpad { ptr, i32 }
          cleanup
  call void @_ZN9parameterD1Ev(ptr noundef nonnull align 8 dereferenceable(16) %5) #26
  call void @llvm.lifetime.end.p0(i64 16, ptr nonnull %5) #26
  resume { ptr, i32 } %14
}